; Function Attrs: mustprogress nofree norecurse nosync nounwind willreturn memory(readwrite, argmem: write, inaccessiblemem: none) uwtable
define hidden void @_ZN10XStatValueC2EPKcS1_jj(ptr nocapture noundef nonnull writeonly align 8 dereferenceable(24) %0, ptr noundef %1, ptr noundef %2, i32 noundef %3, i32 noundef %4) unnamed_addr #3 align 2 {
  store ptr %1, ptr %0, align 8
  %6 = getelementptr inbounds i8, ptr %0, i64 8
  store ptr %2, ptr %6, align 8
  %7 = getelementptr inbounds i8, ptr %0, i64 16
  store i32 %3, ptr %7, align 8
  %8 = getelementptr inbounds i8, ptr %0, i64 20
  %9 = load i32, ptr @_ZN10XStatValue11_cpu_offsetE, align 4
  store i32 %9, ptr %8, align 4
  %10 = add i32 %9, %4
  store i32 %10, ptr @_ZN10XStatValue11_cpu_offsetE, align 4
  ret void
}